; Function Attrs: nounwind uwtable
define internal range(i32 0, 2) i32 @DbCommitHandler(ptr noundef readonly captures(none) %0) #0 {
  %2 = load ptr, ptr @tclStubsPtr, align 8, !tbaa !3
  %3 = getelementptr inbounds nuw i8, ptr %2, i64 1048
  %4 = load ptr, ptr %3, align 8, !tbaa !136
  %5 = getelementptr inbounds nuw i8, ptr %0, i64 8
  %6 = load ptr, ptr %5, align 8, !tbaa !39
  %7 = getelementptr inbounds nuw i8, ptr %0, i64 24
  %8 = load ptr, ptr %7, align 8, !tbaa !66
  %9 = tail call i32 %4(ptr noundef %6, ptr noundef %8) #14
  %.not = icmp eq i32 %9, 0
  br i1 %.not, label %10, label %18

10:                                               ; preds = %1
  %11 = load ptr, ptr @tclStubsPtr, align 8, !tbaa !3
  %12 = getelementptr inbounds nuw i8, ptr %11, i64 1408
  %13 = load ptr, ptr %12, align 8, !tbaa !128
  %14 = load ptr, ptr %5, align 8, !tbaa !39
  %15 = tail call ptr %13(ptr noundef %14) #14
  %16 = tail call i64 @strtol(ptr noundef nonnull captures(none) %15, ptr noundef null, i32 noundef 10) #14
  %17 = and i64 %16, 4294967295
  %.not5 = icmp ne i64 %17, 0
  %spec.select = zext i1 %.not5 to i32
  br label %18

18:                                               ; preds = %10, %1
  %.0 = phi i32 [ 1, %1 ], [ %spec.select, %10 ]
  ret i32 %.0
}